target datalayout = "e-m:e-p270:32:32-p271:32:32-p272:64:64-i64:64-i128:128-f80:128-n8:16:32:64-S128"
target triple = "x86_64-pc-linux-gnu"

%struct.IAMFCodecConfig = type { i32, i32, i32, i32, i32, i32, i32, ptr }

; Function Attrs: alwaysinline nounwind willreturn memory(none) uwtable
define internal i32 @av_bswap32(i32 noundef %0) #5 {
  %2 = alloca i32, align 4
  store i32 %0, ptr %2, align 4, !tbaa !9
  %3 = load i32, ptr %2, align 4, !tbaa !9
  %4 = shl i32 %3, 8
  %5 = and i32 %4, 65280
  %6 = load i32, ptr %2, align 4, !tbaa !9
  %7 = lshr i32 %6, 8
  %8 = and i32 %7, 255
  %9 = or i32 %5, %8
  %10 = shl i32 %9, 16
  %11 = load i32, ptr %2, align 4, !tbaa !9
  %12 = lshr i32 %11, 16
  %13 = shl i32 %12, 8
  %14 = and i32 %13, 65280
  %15 = load i32, ptr %2, align 4, !tbaa !9
  %16 = lshr i32 %15, 16
  %17 = lshr i32 %16, 8
  %18 = and i32 %17, 255
  %19 = or i32 %14, %18
  %20 = or i32 %10, %19
  ret i32 %20
}

; Function Attrs: alwaysinline nounwind uwtable
define internal i64 @avio_tell(ptr noundef %0) #6 {
  %2 = alloca ptr, align 8
  store ptr %0, ptr %2, align 8, !tbaa !26
  %3 = load ptr, ptr %2, align 8, !tbaa !26
  %4 = call i64 @avio_seek(ptr noundef %3, i64 noundef 0, i32 noundef 1)
  ret i64 %4
}

; Function Attrs: nounwind uwtable
define internal i32 @opus_decoder_config(ptr noundef %0, ptr noundef %1, i32 noundef %2) #0 {
  %4 = alloca i32, align 4
  %5 = alloca ptr, align 8
  %6 = alloca ptr, align 8
  %7 = alloca i32, align 4
  %8 = alloca i32, align 4
  %9 = alloca i32, align 4
  %10 = alloca i32, align 4
  store ptr %0, ptr %5, align 8, !tbaa !30
  store ptr %1, ptr %6, align 8, !tbaa !26
  store i32 %2, ptr %7, align 4, !tbaa !9
  call void @llvm.lifetime.start.p0(i64 4, ptr %8) #12
  call void @llvm.lifetime.start.p0(i64 4, ptr %9) #12
  %11 = load i32, ptr %7, align 4, !tbaa !9
  %12 = sext i32 %11 to i64
  %13 = load ptr, ptr %6, align 8, !tbaa !26
  %14 = call i64 @avio_tell(ptr noundef %13)
  %15 = sub nsw i64 %12, %14
  %16 = trunc i64 %15 to i32
  store i32 %16, ptr %9, align 4, !tbaa !9
  %17 = load i32, ptr %9, align 4, !tbaa !9
  %18 = icmp slt i32 %17, 11
  br i1 %18, label %24, label %19

19:                                               ; preds = %3
  %20 = load ptr, ptr %5, align 8, !tbaa !30
  %21 = getelementptr inbounds nuw %struct.IAMFCodecConfig, ptr %20, i32 0, i32 4
  %22 = load i32, ptr %21, align 8, !tbaa !48
  %23 = icmp sge i32 %22, 0
  br i1 %23, label %24, label %25

24:                                               ; preds = %19, %3
  store i32 -1094995529, ptr %4, align 4
  store i32 1, ptr %10, align 4
  br label %65

25:                                               ; preds = %19
  %26 = load i32, ptr %9, align 4, !tbaa !9
  %27 = add nsw i32 %26, 8
  %28 = sext i32 %27 to i64
  %29 = call noalias ptr @av_malloc(i64 noundef %28)
  %30 = load ptr, ptr %5, align 8, !tbaa !30
  %31 = getelementptr inbounds nuw %struct.IAMFCodecConfig, ptr %30, i32 0, i32 7
  store ptr %29, ptr %31, align 8, !tbaa !49
  %32 = load ptr, ptr %5, align 8, !tbaa !30
  %33 = getelementptr inbounds nuw %struct.IAMFCodecConfig, ptr %32, i32 0, i32 7
  %34 = load ptr, ptr %33, align 8, !tbaa !49
  %35 = icmp ne ptr %34, null
  br i1 %35, label %37, label %36

36:                                               ; preds = %25
  store i32 -12, ptr %4, align 4
  store i32 1, ptr %10, align 4
  br label %65

37:                                               ; preds = %25
  %38 = call i32 @av_bswap32(i32 noundef 1332770163) #13
  %39 = load ptr, ptr %5, align 8, !tbaa !30
  %40 = getelementptr inbounds nuw %struct.IAMFCodecConfig, ptr %39, i32 0, i32 7
  %41 = load ptr, ptr %40, align 8, !tbaa !49
  store i32 %38, ptr %41, align 4, !tbaa !20
  %42 = call i32 @av_bswap32(i32 noundef 1214603620) #13
  %43 = load ptr, ptr %5, align 8, !tbaa !30
  %44 = getelementptr inbounds nuw %struct.IAMFCodecConfig, ptr %43, i32 0, i32 7
  %45 = load ptr, ptr %44, align 8, !tbaa !49
  %46 = getelementptr inbounds i8, ptr %45, i64 4
  store i32 %42, ptr %46, align 4, !tbaa !20
  %47 = load ptr, ptr %6, align 8, !tbaa !26
  %48 = load ptr, ptr %5, align 8, !tbaa !30
  %49 = getelementptr inbounds nuw %struct.IAMFCodecConfig, ptr %48, i32 0, i32 7
  %50 = load ptr, ptr %49, align 8, !tbaa !49
  %51 = getelementptr inbounds i8, ptr %50, i64 8
  %52 = load i32, ptr %9, align 4, !tbaa !9
  %53 = call i32 @ffio_read_size(ptr noundef %47, ptr noundef %51, i32 noundef %52)
  store i32 %53, ptr %8, align 4, !tbaa !9
  %54 = load i32, ptr %8, align 4, !tbaa !9
  %55 = icmp slt i32 %54, 0
  br i1 %55, label %56, label %58

56:                                               ; preds = %37
  %57 = load i32, ptr %8, align 4, !tbaa !9
  store i32 %57, ptr %4, align 4
  store i32 1, ptr %10, align 4
  br label %65

58:                                               ; preds = %37
  %59 = load i32, ptr %9, align 4, !tbaa !9
  %60 = add nsw i32 %59, 8
  %61 = load ptr, ptr %5, align 8, !tbaa !30
  %62 = getelementptr inbounds nuw %struct.IAMFCodecConfig, ptr %61, i32 0, i32 6
  store i32 %60, ptr %62, align 8, !tbaa !87
  %63 = load ptr, ptr %5, align 8, !tbaa !30
  %64 = getelementptr inbounds nuw %struct.IAMFCodecConfig, ptr %63, i32 0, i32 5
  store i32 48000, ptr %64, align 4, !tbaa !84
  store i32 0, ptr %4, align 4
  store i32 1, ptr %10, align 4
  br label %65

65:                                               ; preds = %58, %56, %36, %24
  call void @llvm.lifetime.end.p0(i64 4, ptr %9) #12
  call void @llvm.lifetime.end.p0(i64 4, ptr %8) #12
  %66 = load i32, ptr %4, align 4
  ret i32 %66
}