; Function Attrs: nounwind uwtable
define internal fastcc range(i32 -2147483648, 1) i32 @opus_decoder_config(ptr noundef nonnull captures(none) %0, ptr noundef nonnull %1, i32 noundef %2) unnamed_addr #2 {
  %4 = tail call i64 @avio_seek(ptr noundef nonnull %1, i64 noundef 0, i32 noundef 1) #10
  %5 = trunc i64 %4 to i32
  %6 = sub i32 %2, %5
  %7 = icmp slt i32 %6, 11
  br i1 %7, label %25, label %8

8:                                                ; preds = %3
  %9 = getelementptr inbounds nuw i8, ptr %0, i64 16
  %10 = load i32, ptr %9, align 8, !tbaa !28
  %11 = icmp sgt i32 %10, -1
  br i1 %11, label %25, label %12

12:                                               ; preds = %8
  %13 = add nuw nsw i32 %6, 8
  %14 = zext nneg i32 %13 to i64
  %15 = tail call noalias ptr @av_malloc(i64 noundef %14) #10
  %16 = getelementptr inbounds nuw i8, ptr %0, i64 32
  store ptr %15, ptr %16, align 8, !tbaa !29
  %.not = icmp eq ptr %15, null
  br i1 %.not, label %25, label %17

17:                                               ; preds = %12
  store i32 1937076303, ptr %15, align 4, !tbaa !4
  %18 = getelementptr inbounds nuw i8, ptr %15, i64 4
  store i32 1684104520, ptr %18, align 4, !tbaa !4
  %19 = getelementptr inbounds nuw i8, ptr %15, i64 8
  %20 = tail call i32 @ffio_read_size(ptr noundef nonnull %1, ptr noundef nonnull %19, i32 noundef %6) #10
  %21 = icmp slt i32 %20, 0
  br i1 %21, label %25, label %22

22:                                               ; preds = %17
  %23 = getelementptr inbounds nuw i8, ptr %0, i64 24
  store i32 %13, ptr %23, align 8, !tbaa !66
  %24 = getelementptr inbounds nuw i8, ptr %0, i64 20
  store i32 48000, ptr %24, align 4, !tbaa !63
  br label %25

25:                                               ; preds = %17, %12, %3, %8, %22
  %.0 = phi i32 [ 0, %22 ], [ -1094995529, %8 ], [ -1094995529, %3 ], [ -12, %12 ], [ %20, %17 ]
  ret i32 %.0
}